target datalayout = "e-m:e-p270:32:32-p271:32:32-p272:64:64-i64:64-i128:128-f80:128-n8:16:32:64-S128"
target triple = "x86_64-pc-linux-gnu"

%class.ScanTree = type { [1024 x ptr], i32, i32, ptr, i32, i8, i32, i32, i8, [2048 x i32], [2048 x i32], %class.StringList, %class.StringList, ptr, ptr, i8, i8, i64, [2048 x i32], ptr }
%class.StringList = type { %class.Array, i64, i64, [16 x i64], i64 }
%class.Array = type { ptr, i64, i64, i64 }

; Function Attrs: mustprogress nounwind uwtable
define linkonce_odr void @_ZN5ArrayIwED2Ev(ptr noundef nonnull align 8 dereferenceable(32) %0) unnamed_addr #4 comdat align 2 {
  %2 = alloca ptr, align 8
  store ptr %0, ptr %2, align 8, !tbaa !70
  %3 = load ptr, ptr %2, align 8
  %4 = getelementptr inbounds nuw %class.Array, ptr %3, i32 0, i32 0
  %5 = load ptr, ptr %4, align 8, !tbaa !72
  %6 = icmp ne ptr %5, null
  br i1 %6, label %7, label %10

7:                                                ; preds = %1
  %8 = getelementptr inbounds nuw %class.Array, ptr %3, i32 0, i32 0
  %9 = load ptr, ptr %8, align 8, !tbaa !72
  call void @free(ptr noundef %9) #12
  br label %10

10:                                               ; preds = %7, %1
  ret void
}

; Function Attrs: inlinehint mustprogress nounwind uwtable
define linkonce_odr void @_ZN10StringListD2Ev(ptr noundef nonnull align 8 dereferenceable(184) %0) unnamed_addr #3 comdat align 2 {
  %2 = alloca ptr, align 8
  store ptr %0, ptr %2, align 8, !tbaa !8
  %3 = load ptr, ptr %2, align 8
  %4 = getelementptr inbounds nuw %class.StringList, ptr %3, i32 0, i32 0
  call void @_ZN5ArrayIwED2Ev(ptr noundef nonnull align 8 dereferenceable(32) %4) #12
  ret void
}

; Function Attrs: mustprogress uwtable
define void @_ZN8ScanTreeC2EP10StringList12RECURSE_MODEb9SCAN_DIRS(ptr noundef nonnull align 8 dereferenceable(33216) %0, ptr noundef %1, i32 noundef %2, i1 noundef zeroext %3, i32 noundef %4) unnamed_addr #0 align 2 personality ptr @__gxx_personality_v0 {
  %6 = alloca ptr, align 8
  %7 = alloca ptr, align 8
  %8 = alloca i32, align 4
  %9 = alloca i8, align 1
  %10 = alloca i32, align 4
  %11 = alloca ptr, align 8
  %12 = alloca i32, align 4
  store ptr %0, ptr %6, align 8, !tbaa !3
  store ptr %1, ptr %7, align 8, !tbaa !8
  store i32 %2, ptr %8, align 4, !tbaa !10
  %13 = zext i1 %3 to i8
  store i8 %13, ptr %9, align 1, !tbaa !12
  store i32 %4, ptr %10, align 4, !tbaa !14
  %14 = load ptr, ptr %6, align 8
  %15 = getelementptr inbounds nuw %class.ScanTree, ptr %14, i32 0, i32 11
  call void @_ZN10StringListC1Ev(ptr noundef nonnull align 8 dereferenceable(184) %15)
  %16 = getelementptr inbounds nuw %class.ScanTree, ptr %14, i32 0, i32 12
  invoke void @_ZN10StringListC1Ev(ptr noundef nonnull align 8 dereferenceable(184) %16)
          to label %17 unwind label %42

17:                                               ; preds = %5
  %18 = load ptr, ptr %7, align 8, !tbaa !8
  %19 = getelementptr inbounds nuw %class.ScanTree, ptr %14, i32 0, i32 3
  store ptr %18, ptr %19, align 8, !tbaa !16
  %20 = load i32, ptr %8, align 4, !tbaa !10
  %21 = getelementptr inbounds nuw %class.ScanTree, ptr %14, i32 0, i32 4
  store i32 %20, ptr %21, align 8, !tbaa !25
  %22 = load i8, ptr %9, align 1, !tbaa !12, !range !26, !noundef !27
  %23 = trunc i8 %22 to i1
  %24 = getelementptr inbounds nuw %class.ScanTree, ptr %14, i32 0, i32 5
  %25 = zext i1 %23 to i8
  store i8 %25, ptr %24, align 4, !tbaa !28
  %26 = load i32, ptr %10, align 4, !tbaa !14
  %27 = getelementptr inbounds nuw %class.ScanTree, ptr %14, i32 0, i32 6
  store i32 %26, ptr %27, align 8, !tbaa !29
  %28 = getelementptr inbounds nuw %class.ScanTree, ptr %14, i32 0, i32 8
  store i8 0, ptr %28, align 8, !tbaa !30
  %29 = getelementptr inbounds nuw %class.ScanTree, ptr %14, i32 0, i32 15
  store i8 0, ptr %29, align 8, !tbaa !31
  %30 = getelementptr inbounds nuw %class.ScanTree, ptr %14, i32 0, i32 2
  store i32 0, ptr %30, align 4, !tbaa !32
  %31 = getelementptr inbounds nuw %class.ScanTree, ptr %14, i32 0, i32 9
  %32 = getelementptr inbounds [2048 x i32], ptr %31, i64 0, i64 0
  store i32 0, ptr %32, align 4, !tbaa !33
  %33 = getelementptr inbounds nuw %class.ScanTree, ptr %14, i32 0, i32 0
  %34 = getelementptr inbounds [1024 x ptr], ptr %33, i64 0, i64 0
  call void @llvm.memset.p0.i64(ptr align 8 %34, i8 0, i64 8192, i1 false)
  %35 = getelementptr inbounds nuw %class.ScanTree, ptr %14, i32 0, i32 1
  store i32 0, ptr %35, align 8, !tbaa !35
  %36 = getelementptr inbounds nuw %class.ScanTree, ptr %14, i32 0, i32 7
  store i32 0, ptr %36, align 4, !tbaa !36
  %37 = getelementptr inbounds nuw %class.ScanTree, ptr %14, i32 0, i32 18
  %38 = getelementptr inbounds [2048 x i32], ptr %37, i64 0, i64 0
  store i32 0, ptr %38, align 8, !tbaa !33
  %39 = getelementptr inbounds nuw %class.ScanTree, ptr %14, i32 0, i32 19
  store ptr null, ptr %39, align 8, !tbaa !37
  %40 = getelementptr inbounds nuw %class.ScanTree, ptr %14, i32 0, i32 13
  store ptr null, ptr %40, align 8, !tbaa !38
  %41 = getelementptr inbounds nuw %class.ScanTree, ptr %14, i32 0, i32 14
  store ptr null, ptr %41, align 8, !tbaa !39
  ret void

42:                                               ; preds = %5
  %43 = landingpad { ptr, i32 }
          cleanup
  %44 = extractvalue { ptr, i32 } %43, 0
  store ptr %44, ptr %11, align 8
  %45 = extractvalue { ptr, i32 } %43, 1
  store i32 %45, ptr %12, align 4
  call void @_ZN10StringListD2Ev(ptr noundef nonnull align 8 dereferenceable(184) %15) #12
  br label %46

46:                                               ; preds = %42
  %47 = load ptr, ptr %11, align 8
  %48 = load i32, ptr %12, align 4
  %49 = insertvalue { ptr, i32 } poison, ptr %47, 0
  %50 = insertvalue { ptr, i32 } %49, i32 %48, 1
  resume { ptr, i32 } %50
}