; Function Attrs: mustprogress uwtable
define void @_ZN8ScanTreeC2EP10StringList12RECURSE_MODEb9SCAN_DIRS(ptr noundef nonnull align 8 dereferenceable(33216) %0, ptr noundef %1, i32 noundef %2, i1 noundef zeroext %3, i32 noundef %4) unnamed_addr #0 align 2 personality ptr @__gxx_personality_v0 {
  %6 = getelementptr inbounds nuw i8, ptr %0, i64 24616
  tail call void @_ZN10StringListC1Ev(ptr noundef nonnull align 8 dereferenceable(184) %6)
  %7 = getelementptr inbounds nuw i8, ptr %0, i64 24800
  invoke void @_ZN10StringListC1Ev(ptr noundef nonnull align 8 dereferenceable(184) %7)
          to label %8 unwind label %20

8:                                                ; preds = %5
  %9 = zext i1 %3 to i8
  %10 = getelementptr inbounds nuw i8, ptr %0, i64 8200
  store ptr %1, ptr %10, align 8, !tbaa !3
  %11 = getelementptr inbounds nuw i8, ptr %0, i64 8208
  store i32 %2, ptr %11, align 8, !tbaa !19
  %12 = getelementptr inbounds nuw i8, ptr %0, i64 8212
  store i8 %9, ptr %12, align 4, !tbaa !20
  %13 = getelementptr inbounds nuw i8, ptr %0, i64 8216
  store i32 %4, ptr %13, align 8, !tbaa !21
  %14 = getelementptr inbounds nuw i8, ptr %0, i64 8224
  store i8 0, ptr %14, align 8, !tbaa !22
  %15 = getelementptr inbounds nuw i8, ptr %0, i64 8228
  store i32 0, ptr %15, align 4, !tbaa !23
  %16 = getelementptr inbounds nuw i8, ptr %0, i64 8220
  store i32 0, ptr %16, align 4, !tbaa !25
  %17 = getelementptr inbounds nuw i8, ptr %0, i64 25016
  store i32 0, ptr %17, align 8, !tbaa !23
  %18 = getelementptr inbounds nuw i8, ptr %0, i64 33208
  store ptr null, ptr %18, align 8, !tbaa !26
  %19 = getelementptr inbounds nuw i8, ptr %0, i64 24984
  tail call void @llvm.memset.p0.i64(ptr noundef nonnull align 8 dereferenceable(8200) %0, i8 0, i64 8200, i1 false)
  tail call void @llvm.memset.p0.i64(ptr noundef nonnull align 8 dereferenceable(17) %19, i8 0, i64 17, i1 false)
  ret void

20:                                               ; preds = %5
  %21 = landingpad { ptr, i32 }
          cleanup
  %22 = load ptr, ptr %6, align 8, !tbaa !27
  %.not.i.i = icmp eq ptr %22, null
  br i1 %.not.i.i, label %_ZN10StringListD2Ev.exit, label %23

23:                                               ; preds = %20
  tail call void @free(ptr noundef nonnull %22) #13
  br label %_ZN10StringListD2Ev.exit

_ZN10StringListD2Ev.exit:                         ; preds = %20, %23
  resume { ptr, i32 } %21
}